target datalayout = "e-m:e-p270:32:32-p271:32:32-p272:64:64-i64:64-i128:128-f80:128-n8:16:32:64-S128"
target triple = "x86_64-pc-linux-gnu"

; Function Attrs: mustprogress uwtable
define noundef zeroext i1 @_ZN4base12TruncateFileEP8_IO_FILE(ptr noundef %0) #0 {
  %2 = alloca i1, align 1
  %3 = alloca ptr, align 8
  %4 = alloca i64, align 8
  %5 = alloca i32, align 4
  %6 = alloca i32, align 4
  store ptr %0, ptr %3, align 8, !tbaa !35
  %7 = load ptr, ptr %3, align 8, !tbaa !35
  %8 = icmp eq ptr %7, null
  br i1 %8, label %9, label %10

9:                                                ; preds = %1
  store i1 false, ptr %2, align 1
  br label %27

10:                                               ; preds = %1
  call void @llvm.lifetime.start.p0(i64 8, ptr %4) #14
  %11 = load ptr, ptr %3, align 8, !tbaa !35
  %12 = call i64 @ftell(ptr noundef %11)
  store i64 %12, ptr %4, align 8, !tbaa !8
  %13 = load i64, ptr %4, align 8, !tbaa !8
  %14 = icmp eq i64 %13, -1
  br i1 %14, label %15, label %16

15:                                               ; preds = %10
  store i1 false, ptr %2, align 1
  store i32 1, ptr %5, align 4
  br label %26

16:                                               ; preds = %10
  call void @llvm.lifetime.start.p0(i64 4, ptr %6) #14
  %17 = load ptr, ptr %3, align 8, !tbaa !35
  %18 = call i32 @fileno(ptr noundef %17) #14
  store i32 %18, ptr %6, align 4, !tbaa !12
  %19 = load i32, ptr %6, align 4, !tbaa !12
  %20 = load i64, ptr %4, align 8, !tbaa !8
  %21 = call i32 @ftruncate(i32 noundef %19, i64 noundef %20) #14
  %22 = icmp ne i32 %21, 0
  br i1 %22, label %23, label %24

23:                                               ; preds = %16
  store i1 false, ptr %2, align 1
  store i32 1, ptr %5, align 4
  br label %25

24:                                               ; preds = %16
  store i1 true, ptr %2, align 1
  store i32 1, ptr %5, align 4
  br label %25

25:                                               ; preds = %24, %23
  call void @llvm.lifetime.end.p0(i64 4, ptr %6) #14
  br label %26

26:                                               ; preds = %25, %15
  call void @llvm.lifetime.end.p0(i64 8, ptr %4) #14
  br label %27

27:                                               ; preds = %26, %9
  %28 = load i1, ptr %2, align 1
  ret i1 %28
}