; Function Attrs: mustprogress nounwind uwtable
define noundef zeroext i1 @_ZN4base12TruncateFileEP8_IO_FILE(ptr noundef captures(address_is_null) %0) local_unnamed_addr #4 {
  %2 = icmp eq ptr %0, null
  br i1 %2, label %9, label %3

3:                                                ; preds = %1
  %4 = tail call i64 @ftell(ptr noundef nonnull %0)
  %5 = icmp eq i64 %4, -1
  br i1 %5, label %9, label %6

6:                                                ; preds = %3
  %7 = tail call i32 @fileno(ptr noundef nonnull %0) #16
  %8 = tail call i32 @ftruncate(i32 noundef %7, i64 noundef %4) #16
  %.not = icmp eq i32 %8, 0
  br label %9

9:                                                ; preds = %6, %3, %1
  %.0 = phi i1 [ false, %1 ], [ %.not, %6 ], [ false, %3 ]
  ret i1 %.0
}